(lp0
I3
aI4
aI5
aI7
aI9
aI15
aI16
aI17
aI18
aI19
aI20
aI21
aI22
aI23
aI24
aI25
aI26
aI27
aI28
aI29
aI30
aI31
aI32
aI33
aI34
aI35
aI36
aI38
aI39
aI41
aI43
aI44
aI45
aI47
aI49
aI51
aI53
aI54
aI55
aI56
aI57
aI59
aI60
aI62
aI64
aI66
aI67
aI69
aI70
aI72
aI73
aI75
aI77
aI79
aI80
aI81
aI82
aI83
aI84
aI85
aI86
aI87
aI88
aI3
aI4
aI5
aI7
aI9
aI15
aI16
aI17
aI18
aI19
aI20
aI21
aI22
aI23
aI24
aI25
aI26
aI27
aI28
aI29
aI30
aI31
aI32
aI33
aI34
aI35
aI36
aI38
aI39
aI41
aI43
aI44
aI45
aI47
aI49
aI51
aI53
aI54
aI55
aI56
aI57
aI59
aI60
aI62
aI64
aI66
aI67
aI69
aI70
aI72
aI73
aI75
aI77
aI79
aI80
aI81
aI82
aI83
aI84
aI85
aI86
aI87
aI88
aI89
aI22
aI23
aI24
aI25
aI26
aI27
aI28
aI29
aI30
aI31
aI32
aI33
aI34
aI35
aI36
aI38
aI39
aI41
aI43
aI44
aI45
aI47
aI49
aI51
aI53
aI54
aI55
aI56
aI57
aI59
aI60
aI62
aI64
aI66
aI67
aI69
aI70
aI72
aI73
aI75
aI77
aI79
aI80
aI81
aI82
aI83
aI84
aI85
aI86
aI87
aI88
aI89
aI91
aI92
aI93
aI94
aI95
aI96
aI97
aI99
aI100
aI101
aI102
aI104
aI106
aI108
aI26
aI27
aI28
aI29
aI30
aI31
aI32
aI33
aI34
aI35
aI36
aI38
aI39
aI41
aI43
aI44
aI45
aI47
aI49
aI51
aI53
aI54
aI55
aI56
aI57
aI59
aI60
aI62
aI64
aI66
aI67
aI69
aI70
aI72
aI73
aI75
aI77
aI79
aI80
aI81
aI82
aI83
aI84
aI85
aI86
aI87
aI88
aI89
aI91
aI92
aI93
aI94
aI95
aI96
aI97
aI99
aI100
aI101
aI102
aI104
aI106
aI108
aI110
aI111
aI112
aI113
aI115
aI26
aI27
aI28
aI29
aI30
aI31
aI32
aI33
aI34
aI35
aI36
aI38
aI39
aI41
aI43
aI44
aI45
aI47
aI49
aI51
aI53
aI54
aI55
aI56
aI57
aI59
aI60
aI62
aI64
aI66
aI67
aI69
aI70
aI72
aI73
aI75
aI77
aI79
aI80
aI81
aI82
aI83
aI84
aI85
aI86
aI87
aI88
aI89
aI91
aI92
aI93
aI94
aI95
aI96
aI97
aI99
aI100
aI101
aI102
aI104
aI106
aI108
aI110
aI111
aI112
aI113
aI115
aI116
aI117
aI118
aI120
aI121
aI122
aI123
aI124
aI125
aI126
aI128
aI129
aI131
aI132
aI133
aI135
a.